target datalayout = "e-m:e-p270:32:32-p271:32:32-p272:64:64-i64:64-i128:128-f80:128-n8:16:32:64-S128"
target triple = "x86_64-pc-linux-gnu"

@.str.2 = private unnamed_addr constant [5 x i8] c"_neg\00", align 1
@.str.3 = private unnamed_addr constant [5 x i8] c"_pos\00", align 1
@.str.4 = private unnamed_addr constant [22 x i8] c"    input  [%d:0] i,\0A\00", align 1
@.str.5 = private unnamed_addr constant [22 x i8] c"    input  [%d:0] s,\0A\00", align 1
@.str.6 = private unnamed_addr constant [21 x i8] c"    output [%d:0] o\0A\00", align 1
@.str.7 = private unnamed_addr constant [4 x i8] c");\0A\00", align 1
@.str.11 = private unnamed_addr constant [12 x i8] c"endmodule\0A\0A\00", align 1
@.str.34 = private unnamed_addr constant [21 x i8] c"module macc%03d%s (\0A\00", align 1
@.str.39 = private unnamed_addr constant [72 x i8] c"// %d-bit multiplier-accumulator by constant %d generated by ABC on %s\0A\00", align 1
@.str.40 = private unnamed_addr constant [19 x i8] c"    assign o = s;\0A\00", align 1
@.str.41 = private unnamed_addr constant [25 x i8] c"    wire [%d:0] n1 = i;\0A\00", align 1
@.str.42 = private unnamed_addr constant [26 x i8] c"    assign o = s + %c%d;\0A\00", align 1

; Function Attrs: inlinehint nounwind uwtable
define internal i32 @Abc_AbsInt(i32 noundef %0) #4 {
  %2 = alloca i32, align 4
  store i32 %0, ptr %2, align 4, !tbaa !8
  %3 = load i32, ptr %2, align 4, !tbaa !8
  %4 = icmp slt i32 %3, 0
  br i1 %4, label %5, label %8

5:                                                ; preds = %1
  %6 = load i32, ptr %2, align 4, !tbaa !8
  %7 = sub nsw i32 0, %6
  br label %10

8:                                                ; preds = %1
  %9 = load i32, ptr %2, align 4, !tbaa !8
  br label %10

10:                                               ; preds = %8, %5
  %11 = phi i32 [ %7, %5 ], [ %9, %8 ]
  ret i32 %11
}

; Function Attrs: nounwind uwtable
define void @Macc_ConstMultGenMacc2(ptr noundef %0, ptr noundef %1, i32 noundef %2, i32 noundef %3, i32 noundef %4) #0 {
  %6 = alloca ptr, align 8
  %7 = alloca ptr, align 8
  %8 = alloca i32, align 4
  %9 = alloca i32, align 4
  %10 = alloca i32, align 4
  %11 = alloca i32, align 4
  %12 = alloca i32, align 4
  %13 = alloca i8, align 1
  store ptr %0, ptr %6, align 8, !tbaa !3
  store ptr %1, ptr %7, align 8, !tbaa !14
  store i32 %2, ptr %8, align 4, !tbaa !8
  store i32 %3, ptr %9, align 4, !tbaa !8
  store i32 %4, ptr %10, align 4, !tbaa !8
  call void @llvm.lifetime.start.p0(i64 4, ptr %11) #9
  %14 = load i32, ptr %10, align 4, !tbaa !8
  %15 = load i32, ptr %9, align 4, !tbaa !8
  %16 = add nsw i32 %14, %15
  store i32 %16, ptr %11, align 4, !tbaa !8
  call void @llvm.lifetime.start.p0(i64 4, ptr %12) #9
  %17 = load i32, ptr %9, align 4, !tbaa !8
  %18 = sub nsw i32 %17, 1
  %19 = shl i32 1, %18
  store i32 %19, ptr %12, align 4, !tbaa !8
  call void @llvm.lifetime.start.p0(i64 1, ptr %13) #9
  %20 = load i32, ptr %8, align 4, !tbaa !8
  %21 = icmp slt i32 %20, 0
  %22 = select i1 %21, i32 78, i32 110
  %23 = trunc i32 %22 to i8
  store i8 %23, ptr %13, align 1, !tbaa !36
  %24 = load ptr, ptr %6, align 8, !tbaa !3
  %25 = load i32, ptr %11, align 4, !tbaa !8
  %26 = load i32, ptr %8, align 4, !tbaa !8
  %27 = call ptr (...) @Extra_TimeStamp()
  %28 = call i32 (ptr, ptr, ...) @fprintf(ptr noundef %24, ptr noundef @.str.39, i32 noundef %25, i32 noundef %26, ptr noundef %27) #9
  %29 = load ptr, ptr %6, align 8, !tbaa !3
  %30 = load i32, ptr %8, align 4, !tbaa !8
  %31 = call i32 @Abc_AbsInt(i32 noundef %30)
  %32 = load i32, ptr %8, align 4, !tbaa !8
  %33 = icmp slt i32 %32, 0
  %34 = select i1 %33, ptr @.str.2, ptr @.str.3
  %35 = call i32 (ptr, ptr, ...) @fprintf(ptr noundef %29, ptr noundef @.str.34, i32 noundef %31, ptr noundef %34) #9
  %36 = load ptr, ptr %6, align 8, !tbaa !3
  %37 = load i32, ptr %11, align 4, !tbaa !8
  %38 = sub nsw i32 %37, 1
  %39 = call i32 (ptr, ptr, ...) @fprintf(ptr noundef %36, ptr noundef @.str.4, i32 noundef %38) #9
  %40 = load ptr, ptr %6, align 8, !tbaa !3
  %41 = load i32, ptr %11, align 4, !tbaa !8
  %42 = sub nsw i32 %41, 1
  %43 = call i32 (ptr, ptr, ...) @fprintf(ptr noundef %40, ptr noundef @.str.5, i32 noundef %42) #9
  %44 = load ptr, ptr %6, align 8, !tbaa !3
  %45 = load i32, ptr %11, align 4, !tbaa !8
  %46 = sub nsw i32 %45, 1
  %47 = call i32 (ptr, ptr, ...) @fprintf(ptr noundef %44, ptr noundef @.str.6, i32 noundef %46) #9
  %48 = load ptr, ptr %6, align 8, !tbaa !3
  %49 = call i32 (ptr, ptr, ...) @fprintf(ptr noundef %48, ptr noundef @.str.7) #9
  %50 = load i32, ptr %8, align 4, !tbaa !8
  %51 = icmp eq i32 %50, 0
  br i1 %51, label %52, label %55

52:                                               ; preds = %5
  %53 = load ptr, ptr %6, align 8, !tbaa !3
  %54 = call i32 (ptr, ptr, ...) @fprintf(ptr noundef %53, ptr noundef @.str.40) #9
  br label %71

55:                                               ; preds = %5
  %56 = load ptr, ptr %6, align 8, !tbaa !3
  %57 = load i32, ptr %11, align 4, !tbaa !8
  %58 = sub nsw i32 %57, 1
  %59 = call i32 (ptr, ptr, ...) @fprintf(ptr noundef %56, ptr noundef @.str.41, i32 noundef %58) #9
  %60 = load ptr, ptr %6, align 8, !tbaa !3
  %61 = load ptr, ptr %7, align 8, !tbaa !14
  %62 = load i32, ptr %8, align 4, !tbaa !8
  %63 = load i32, ptr %9, align 4, !tbaa !8
  %64 = load i32, ptr %10, align 4, !tbaa !8
  call void @Macc_ConstMultGenOne_rec(ptr noundef %60, ptr noundef %61, i32 noundef %62, i32 noundef %63, i32 noundef %64)
  %65 = load ptr, ptr %6, align 8, !tbaa !3
  %66 = load i8, ptr %13, align 1, !tbaa !36
  %67 = sext i8 %66 to i32
  %68 = load i32, ptr %8, align 4, !tbaa !8
  %69 = call i32 @Abc_AbsInt(i32 noundef %68)
  %70 = call i32 (ptr, ptr, ...) @fprintf(ptr noundef %65, ptr noundef @.str.42, i32 noundef %67, i32 noundef %69) #9
  br label %71

71:                                               ; preds = %55, %52
  %72 = load ptr, ptr %6, align 8, !tbaa !3
  %73 = call i32 (ptr, ptr, ...) @fprintf(ptr noundef %72, ptr noundef @.str.11) #9
  call void @llvm.lifetime.end.p0(i64 1, ptr %13) #9
  call void @llvm.lifetime.end.p0(i64 4, ptr %12) #9
  call void @llvm.lifetime.end.p0(i64 4, ptr %11) #9
  ret void
}