; Function Attrs: nounwind uwtable
define void @Macc_ConstMultGenMacc2(ptr noundef %0, ptr noundef %1, i32 noundef %2, i32 noundef %3, i32 noundef %4) local_unnamed_addr #0 {
  %6 = add nsw i32 %4, %3
  %7 = icmp slt i32 %2, 0
  %8 = tail call ptr (...) @Extra_TimeStamp() #12
  %9 = tail call i32 (ptr, ptr, ...) @fprintf(ptr noundef %0, ptr noundef nonnull @.str.39, i32 noundef %6, i32 noundef %2, ptr noundef %8) #12
  %10 = tail call range(i32 0, -2147483648) i32 @llvm.abs.i32(i32 %2, i1 true)
  %11 = select i1 %7, ptr @.str.2, ptr @.str.3
  %12 = tail call i32 (ptr, ptr, ...) @fprintf(ptr noundef %0, ptr noundef nonnull @.str.34, i32 noundef %10, ptr noundef nonnull %11) #12
  %13 = add nsw i32 %6, -1
  %14 = tail call i32 (ptr, ptr, ...) @fprintf(ptr noundef %0, ptr noundef nonnull @.str.4, i32 noundef %13) #12
  %15 = tail call i32 (ptr, ptr, ...) @fprintf(ptr noundef %0, ptr noundef nonnull @.str.5, i32 noundef %13) #12
  %16 = tail call i32 (ptr, ptr, ...) @fprintf(ptr noundef %0, ptr noundef nonnull @.str.6, i32 noundef %13) #12
  %17 = tail call i64 @fwrite(ptr nonnull @.str.7, i64 3, i64 1, ptr %0)
  %18 = icmp eq i32 %2, 0
  br i1 %18, label %19, label %21

19:                                               ; preds = %5
  %20 = tail call i64 @fwrite(ptr nonnull @.str.40, i64 18, i64 1, ptr %0)
  br label %25

21:                                               ; preds = %5
  %22 = tail call i32 (ptr, ptr, ...) @fprintf(ptr noundef %0, ptr noundef nonnull @.str.41, i32 noundef %13) #12
  tail call void @Macc_ConstMultGenOne_rec(ptr noundef %0, ptr noundef %1, i32 noundef %2, i32 noundef %3, i32 noundef %4)
  %23 = select i1 %7, i32 78, i32 110
  %24 = tail call i32 (ptr, ptr, ...) @fprintf(ptr noundef %0, ptr noundef nonnull @.str.42, i32 noundef %23, i32 noundef %10) #12
  br label %25

25:                                               ; preds = %21, %19
  %26 = tail call i64 @fwrite(ptr nonnull @.str.11, i64 11, i64 1, ptr %0)
  ret void
}